target datalayout = "e-m:e-p270:32:32-p271:32:32-p272:64:64-i64:64-i128:128-f80:128-n8:16:32:64-S128"
target triple = "x86_64-pc-linux-gnu"

; Function Attrs: mustprogress nounwind uwtable
define internal void @_ZN12_GLOBAL__N_115RISCVPassConfig23addPreLegalizeMachineIREv(ptr noundef nonnull align 8 dereferenceable(134) %0) unnamed_addr #1 align 2 {
  %2 = alloca ptr, align 8
  store ptr %0, ptr %2, align 8
  %3 = load ptr, ptr %2, align 8
  %4 = call noundef i32 @_ZNK4llvm16TargetPassConfig11getOptLevelEv(ptr noundef nonnull align 8 dereferenceable(134) %3)
  %5 = icmp eq i32 %4, 0
  br i1 %5, label %6, label %8

6:                                                ; preds = %1
  %7 = call noundef ptr @_ZN4llvm33createRISCVO0PreLegalizerCombinerEv()
  call void @_ZN4llvm16TargetPassConfig7addPassEPNS_4PassE(ptr noundef nonnull align 8 dereferenceable(134) %3, ptr noundef %7)
  br label %10

8:                                                ; preds = %1
  %9 = call noundef ptr @_ZN4llvm31createRISCVPreLegalizerCombinerEv()
  call void @_ZN4llvm16TargetPassConfig7addPassEPNS_4PassE(ptr noundef nonnull align 8 dereferenceable(134) %3, ptr noundef %9)
  br label %10

10:                                               ; preds = %8, %6
  ret void
}