; Function Attrs: mustprogress nounwind uwtable
define internal void @_ZN12_GLOBAL__N_115RISCVPassConfig23addPreLegalizeMachineIREv(ptr noundef nonnull align 8 dereferenceable(134) %0) unnamed_addr #0 align 2 {
  %2 = tail call noundef i32 @_ZNK4llvm16TargetPassConfig11getOptLevelEv(ptr noundef nonnull align 8 dereferenceable(134) %0) #24
  %3 = icmp eq i32 %2, 0
  br i1 %3, label %4, label %6

4:                                                ; preds = %1
  %5 = tail call noundef ptr @_ZN4llvm33createRISCVO0PreLegalizerCombinerEv() #24
  br label %8

6:                                                ; preds = %1
  %7 = tail call noundef ptr @_ZN4llvm31createRISCVPreLegalizerCombinerEv() #24
  br label %8

8:                                                ; preds = %6, %4
  %.sink = phi ptr [ %7, %6 ], [ %5, %4 ]
  tail call void @_ZN4llvm16TargetPassConfig7addPassEPNS_4PassE(ptr noundef nonnull align 8 dereferenceable(134) %0, ptr noundef %.sink) #24
  ret void
}